target datalayout = "e-m:e-p270:32:32-p271:32:32-p272:64:64-i64:64-i128:128-f80:128-n8:16:32:64-S128"
target triple = "x86_64-pc-linux-gnu"

%struct.Int128_ = type { i64, i64 }
%struct.Int = type { %struct.Int128_, i32 }

; Function Attrs: nounwind uwtable
define dso_local { i64, i64 } @i128_add64(i64 %0, i64 %1, i64 noundef %2) #0 {
  %4 = alloca %struct.Int128_, align 8
  %5 = alloca %struct.Int128_, align 8
  %6 = alloca i64, align 8
  %7 = alloca i64, align 8
  %8 = getelementptr inbounds { i64, i64 }, ptr %5, i32 0, i32 0
  store i64 %0, ptr %8, align 8
  %9 = getelementptr inbounds { i64, i64 }, ptr %5, i32 0, i32 1
  store i64 %1, ptr %9, align 8
  store i64 %2, ptr %6, align 8
  %10 = getelementptr inbounds %struct.Int128_, ptr %5, i32 0, i32 1
  %11 = load i64, ptr %10, align 8
  %12 = load i64, ptr %6, align 8
  %13 = add i64 %11, %12
  store i64 %13, ptr %7, align 8
  %14 = getelementptr inbounds %struct.Int128_, ptr %4, i32 0, i32 0
  %15 = load i64, ptr %7, align 8
  %16 = getelementptr inbounds %struct.Int128_, ptr %5, i32 0, i32 1
  %17 = load i64, ptr %16, align 8
  %18 = icmp ult i64 %15, %17
  br i1 %18, label %19, label %23

19:                                               ; preds = %3
  %20 = getelementptr inbounds %struct.Int128_, ptr %5, i32 0, i32 0
  %21 = load i64, ptr %20, align 8
  %22 = add i64 %21, 1
  br label %26

23:                                               ; preds = %3
  %24 = getelementptr inbounds %struct.Int128_, ptr %5, i32 0, i32 0
  %25 = load i64, ptr %24, align 8
  br label %26

26:                                               ; preds = %23, %19
  %27 = phi i64 [ %22, %19 ], [ %25, %23 ]
  store i64 %27, ptr %14, align 8
  %28 = getelementptr inbounds %struct.Int128_, ptr %4, i32 0, i32 1
  %29 = load i64, ptr %7, align 8
  store i64 %29, ptr %28, align 8
  %30 = load { i64, i64 }, ptr %4, align 8
  ret { i64, i64 } %30
}

; Function Attrs: nounwind uwtable
define dso_local { i64, i64 } @i128_not(i64 %0, i64 %1) #0 {
  %3 = alloca %struct.Int128_, align 8
  %4 = alloca %struct.Int128_, align 8
  %5 = getelementptr inbounds { i64, i64 }, ptr %4, i32 0, i32 0
  store i64 %0, ptr %5, align 8
  %6 = getelementptr inbounds { i64, i64 }, ptr %4, i32 0, i32 1
  store i64 %1, ptr %6, align 8
  %7 = getelementptr inbounds %struct.Int128_, ptr %3, i32 0, i32 0
  %8 = getelementptr inbounds %struct.Int128_, ptr %4, i32 0, i32 0
  %9 = load i64, ptr %8, align 8
  %10 = xor i64 %9, -1
  store i64 %10, ptr %7, align 8
  %11 = getelementptr inbounds %struct.Int128_, ptr %3, i32 0, i32 1
  %12 = getelementptr inbounds %struct.Int128_, ptr %4, i32 0, i32 1
  %13 = load i64, ptr %12, align 8
  %14 = xor i64 %13, -1
  store i64 %14, ptr %11, align 8
  %15 = load { i64, i64 }, ptr %3, align 8
  ret { i64, i64 } %15
}

; Function Attrs: nounwind uwtable
define dso_local { i64, i64 } @i128_sub64(i64 %0, i64 %1, i64 noundef %2) #0 {
  %4 = alloca %struct.Int128_, align 8
  %5 = alloca %struct.Int128_, align 8
  %6 = alloca i64, align 8
  %7 = alloca i64, align 8
  %8 = getelementptr inbounds { i64, i64 }, ptr %5, i32 0, i32 0
  store i64 %0, ptr %8, align 8
  %9 = getelementptr inbounds { i64, i64 }, ptr %5, i32 0, i32 1
  store i64 %1, ptr %9, align 8
  store i64 %2, ptr %6, align 8
  %10 = getelementptr inbounds %struct.Int128_, ptr %5, i32 0, i32 1
  %11 = load i64, ptr %10, align 8
  %12 = load i64, ptr %6, align 8
  %13 = sub i64 %11, %12
  store i64 %13, ptr %7, align 8
  %14 = getelementptr inbounds %struct.Int128_, ptr %4, i32 0, i32 0
  %15 = load i64, ptr %7, align 8
  %16 = getelementptr inbounds %struct.Int128_, ptr %5, i32 0, i32 1
  %17 = load i64, ptr %16, align 8
  %18 = icmp ugt i64 %15, %17
  br i1 %18, label %19, label %23

19:                                               ; preds = %3
  %20 = getelementptr inbounds %struct.Int128_, ptr %5, i32 0, i32 0
  %21 = load i64, ptr %20, align 8
  %22 = sub i64 %21, 1
  br label %26

23:                                               ; preds = %3
  %24 = getelementptr inbounds %struct.Int128_, ptr %5, i32 0, i32 0
  %25 = load i64, ptr %24, align 8
  br label %26

26:                                               ; preds = %23, %19
  %27 = phi i64 [ %22, %19 ], [ %25, %23 ]
  store i64 %27, ptr %14, align 8
  %28 = getelementptr inbounds %struct.Int128_, ptr %4, i32 0, i32 1
  %29 = load i64, ptr %7, align 8
  store i64 %29, ptr %28, align 8
  %30 = load { i64, i64 }, ptr %4, align 8
  ret { i64, i64 } %30
}

; Function Attrs: nounwind uwtable
define dso_local { i64, i64 } @i128_neg(i64 %0, i64 %1) #0 {
  %3 = alloca %struct.Int128_, align 8
  %4 = alloca %struct.Int128_, align 8
  %5 = alloca %struct.Int128_, align 8
  %6 = getelementptr inbounds { i64, i64 }, ptr %4, i32 0, i32 0
  store i64 %0, ptr %6, align 8
  %7 = getelementptr inbounds { i64, i64 }, ptr %4, i32 0, i32 1
  store i64 %1, ptr %7, align 8
  %8 = getelementptr inbounds %struct.Int128_, ptr %4, i32 0, i32 1
  %9 = load i64, ptr %8, align 8
  %10 = icmp ne i64 %9, 0
  br i1 %10, label %16, label %11

11:                                               ; preds = %2
  %12 = getelementptr inbounds %struct.Int128_, ptr %4, i32 0, i32 1
  %13 = load i64, ptr %12, align 8
  %14 = icmp ne i64 %13, 0
  br i1 %14, label %16, label %15

15:                                               ; preds = %11
  call void @llvm.memcpy.p0.p0.i64(ptr align 8 %3, ptr align 8 %4, i64 16, i1 false)
  br label %35

16:                                               ; preds = %11, %2
  %17 = getelementptr inbounds { i64, i64 }, ptr %4, i32 0, i32 0
  %18 = load i64, ptr %17, align 8
  %19 = getelementptr inbounds { i64, i64 }, ptr %4, i32 0, i32 1
  %20 = load i64, ptr %19, align 8
  %21 = call { i64, i64 } @i128_not(i64 %18, i64 %20)
  %22 = getelementptr inbounds { i64, i64 }, ptr %5, i32 0, i32 0
  %23 = extractvalue { i64, i64 } %21, 0
  store i64 %23, ptr %22, align 8
  %24 = getelementptr inbounds { i64, i64 }, ptr %5, i32 0, i32 1
  %25 = extractvalue { i64, i64 } %21, 1
  store i64 %25, ptr %24, align 8
  %26 = getelementptr inbounds { i64, i64 }, ptr %5, i32 0, i32 0
  %27 = load i64, ptr %26, align 8
  %28 = getelementptr inbounds { i64, i64 }, ptr %5, i32 0, i32 1
  %29 = load i64, ptr %28, align 8
  %30 = call { i64, i64 } @i128_add64(i64 %27, i64 %29, i64 noundef 1)
  %31 = getelementptr inbounds { i64, i64 }, ptr %3, i32 0, i32 0
  %32 = extractvalue { i64, i64 } %30, 0
  store i64 %32, ptr %31, align 8
  %33 = getelementptr inbounds { i64, i64 }, ptr %3, i32 0, i32 1
  %34 = extractvalue { i64, i64 } %30, 1
  store i64 %34, ptr %33, align 8
  br label %35

35:                                               ; preds = %16, %15
  %36 = load { i64, i64 }, ptr %3, align 8
  ret { i64, i64 } %36
}

; Function Attrs: nounwind uwtable
define dso_local zeroext i1 @i128_is_neg(i64 %0, i64 %1) #0 {
  %3 = alloca %struct.Int128_, align 8
  %4 = getelementptr inbounds { i64, i64 }, ptr %3, i32 0, i32 0
  store i64 %0, ptr %4, align 8
  %5 = getelementptr inbounds { i64, i64 }, ptr %3, i32 0, i32 1
  store i64 %1, ptr %5, align 8
  %6 = getelementptr inbounds %struct.Int128_, ptr %3, i32 0, i32 0
  %7 = load i64, ptr %6, align 8
  %8 = lshr i64 %7, 63
  %9 = icmp ne i64 %8, 0
  ret i1 %9
}

; Function Attrs: nounwind uwtable
define dso_local i32 @int_bits_needed(ptr noundef byval(%struct.Int) align 8 %0) #0 {
  %2 = alloca i32, align 4
  %3 = alloca i32, align 4
  %4 = alloca i32, align 4
  %5 = alloca %struct.Int128_, align 8
  %6 = alloca %struct.Int128_, align 8
  %7 = alloca %struct.Int128_, align 8
  %8 = getelementptr inbounds %struct.Int, ptr %0, i32 0, i32 1
  %9 = load i32, ptr %8, align 8
  store i32 %9, ptr %4, align 4
  %10 = getelementptr inbounds %struct.Int, ptr %0, i32 0, i32 0
  call void @llvm.memcpy.p0.p0.i64(ptr align 8 %5, ptr align 8 %10, i64 16, i1 false)
  %11 = load i32, ptr %4, align 4
  store i32 %11, ptr %2, align 4
  %12 = load i32, ptr %2, align 4
  %13 = icmp uge i32 %12, 3
  br i1 %13, label %14, label %17

14:                                               ; preds = %1
  %15 = load i32, ptr %2, align 4
  %16 = icmp ult i32 %15, 8
  br label %17

17:                                               ; preds = %14, %1
  %18 = phi i1 [ false, %1 ], [ %16, %14 ]
  br i1 %18, label %19, label %47

19:                                               ; preds = %17
  %20 = getelementptr inbounds { i64, i64 }, ptr %5, i32 0, i32 0
  %21 = load i64, ptr %20, align 8
  %22 = getelementptr inbounds { i64, i64 }, ptr %5, i32 0, i32 1
  %23 = load i64, ptr %22, align 8
  %24 = call zeroext i1 @i128_is_neg(i64 %21, i64 %23)
  br i1 %24, label %25, label %44

25:                                               ; preds = %19
  %26 = getelementptr inbounds { i64, i64 }, ptr %5, i32 0, i32 0
  %27 = load i64, ptr %26, align 8
  %28 = getelementptr inbounds { i64, i64 }, ptr %5, i32 0, i32 1
  %29 = load i64, ptr %28, align 8
  %30 = call { i64, i64 } @i128_neg(i64 %27, i64 %29)
  %31 = getelementptr inbounds { i64, i64 }, ptr %6, i32 0, i32 0
  %32 = extractvalue { i64, i64 } %30, 0
  store i64 %32, ptr %31, align 8
  %33 = getelementptr inbounds { i64, i64 }, ptr %6, i32 0, i32 1
  %34 = extractvalue { i64, i64 } %30, 1
  store i64 %34, ptr %33, align 8
  call void @llvm.memcpy.p0.p0.i64(ptr align 8 %5, ptr align 8 %6, i64 16, i1 false)
  %35 = getelementptr inbounds { i64, i64 }, ptr %5, i32 0, i32 0
  %36 = load i64, ptr %35, align 8
  %37 = getelementptr inbounds { i64, i64 }, ptr %5, i32 0, i32 1
  %38 = load i64, ptr %37, align 8
  %39 = call { i64, i64 } @i128_sub64(i64 %36, i64 %38, i64 noundef 1)
  %40 = getelementptr inbounds { i64, i64 }, ptr %7, i32 0, i32 0
  %41 = extractvalue { i64, i64 } %39, 0
  store i64 %41, ptr %40, align 8
  %42 = getelementptr inbounds { i64, i64 }, ptr %7, i32 0, i32 1
  %43 = extractvalue { i64, i64 } %39, 1
  store i64 %43, ptr %42, align 8
  call void @llvm.memcpy.p0.p0.i64(ptr align 8 %5, ptr align 8 %7, i64 16, i1 false)
  br label %44

44:                                               ; preds = %25, %19
  %45 = call i32 @i128_clz(ptr noundef %5)
  %46 = sub i32 129, %45
  store i32 %46, ptr %3, align 4
  br label %50

47:                                               ; preds = %17
  %48 = call i32 @i128_clz(ptr noundef %5)
  %49 = sub i32 128, %48
  store i32 %49, ptr %3, align 4
  br label %50

50:                                               ; preds = %47, %44
  %51 = load i32, ptr %3, align 4
  ret i32 %51
}