; Function Attrs: mustprogress nofree norecurse nosync nounwind willreturn memory(argmem: readwrite) uwtable
define dso_local range(i32 0, 130) i32 @int_bits_needed(ptr noundef readonly byval(%struct.Int) align 8 captures(none) %0) local_unnamed_addr #15 {
  %2 = alloca %struct.Int128_, align 8
  %3 = getelementptr inbounds nuw i8, ptr %0, i64 16
  %4 = load i32, ptr %3, align 8
  call void @llvm.memcpy.p0.p0.i64(ptr noundef nonnull align 8 dereferenceable(16) %2, ptr noundef nonnull align 8 dereferenceable(16) %0, i64 16, i1 false)
  %5 = add i32 %4, -3
  %6 = icmp ult i32 %5, 5
  br i1 %6, label %7, label %24

7:                                                ; preds = %1
  %8 = load i64, ptr %2, align 8
  %9 = getelementptr inbounds nuw i8, ptr %2, i64 8
  %10 = icmp slt i64 %8, 0
  br i1 %10, label %11, label %24

11:                                               ; preds = %7
  %12 = load i64, ptr %9, align 8
  %.not.i = icmp eq i64 %12, 0
  br i1 %.not.i, label %i128_neg.exit, label %13

13:                                               ; preds = %11
  %14 = xor i64 %8, -1
  %15 = xor i64 %12, -1
  %16 = sub i64 0, %12
  %17 = icmp ult i64 %16, %15
  %18 = zext i1 %17 to i64
  %19 = add nuw i64 %18, %14
  br label %i128_neg.exit

i128_neg.exit:                                    ; preds = %11, %13
  %.pn11.i = phi i64 [ %19, %13 ], [ %8, %11 ]
  %.pn.i = phi i64 [ %16, %13 ], [ 0, %11 ]
  %20 = add i64 %.pn.i, -1
  %21 = icmp eq i64 %.pn.i, 0
  %22 = sext i1 %21 to i64
  %23 = add i64 %.pn11.i, %22
  store i64 %23, ptr %2, align 8
  store i64 %20, ptr %9, align 8
  br label %24

24:                                               ; preds = %1, %7, %i128_neg.exit
  %.sink = phi i32 [ 129, %i128_neg.exit ], [ 129, %7 ], [ 128, %1 ]
  %25 = call i32 @i128_clz(ptr noundef nonnull %2)
  %26 = sub nuw nsw i32 %.sink, %25
  ret i32 %26
}